;
; Definition file of libgnutlsxx-28.dll
; Automatic generated by gendef
; written by Kai Tietz 2008
;
LIBRARY "libgnutlsxx-28.dll"
EXPORTS
_ZN6gnutls11credentials7set_ptrEPv
_ZN6gnutls11credentialsC1E25gnutls_credentials_type_t
_ZN6gnutls11credentialsC2E25gnutls_credentials_type_t
_ZN6gnutls11credentialsD0Ev
_ZN6gnutls11credentialsD1Ev
_ZN6gnutls14client_session15set_server_nameE25gnutls_server_name_type_tPKvy
_ZN6gnutls14client_session18get_request_statusEv
_ZN6gnutls14client_sessionC1Ev
_ZN6gnutls14client_sessionC2Ev
_ZN6gnutls14client_sessionD0Ev
_ZN6gnutls14client_sessionD1Ev
_ZN6gnutls14client_sessionD2Ev
_ZN6gnutls14server_session11rehandshakeEv
_ZN6gnutls14server_session23set_certificate_requestE28gnutls_certificate_request_t
_ZN6gnutls14server_session23set_db_cache_expirationEj
_ZN6gnutls14server_session6set_dbERKNS_2DBE
_ZN6gnutls14server_sessionC1Ev
_ZN6gnutls14server_sessionC2Ev
_ZN6gnutls14server_sessionD0Ev
_ZN6gnutls14server_sessionD1Ev
_ZN6gnutls14server_sessionD2Ev
_ZN6gnutls22psk_client_credentials15set_credentialsEPKcRK14gnutls_datum_t20gnutls_psk_key_flags
_ZN6gnutls22psk_client_credentials24set_credentials_functionEPFiP18gnutls_session_intPPcP14gnutls_datum_tE
_ZN6gnutls22psk_client_credentialsC1Ev
_ZN6gnutls22psk_client_credentialsC2Ev
_ZN6gnutls22psk_client_credentialsD0Ev
_ZN6gnutls22psk_client_credentialsD1Ev
_ZN6gnutls22psk_client_credentialsD2Ev
_ZN6gnutls22psk_server_credentials13set_dh_paramsERKNS_9dh_paramsE
_ZN6gnutls22psk_server_credentials19set_params_functionEPFiP18gnutls_session_int20gnutls_params_type_tP16gnutls_params_stE
_ZN6gnutls22psk_server_credentials20set_credentials_fileEPKc
_ZN6gnutls22psk_server_credentials24set_credentials_functionEPFiP18gnutls_session_intPKcP14gnutls_datum_tE
_ZN6gnutls22psk_server_credentialsC1Ev
_ZN6gnutls22psk_server_credentialsC2Ev
_ZN6gnutls22psk_server_credentialsD0Ev
_ZN6gnutls22psk_server_credentialsD1Ev
_ZN6gnutls22psk_server_credentialsD2Ev
_ZN6gnutls22srp_client_credentials15set_credentialsEPKcS2_
_ZN6gnutls22srp_client_credentials24set_credentials_functionEPFiP18gnutls_session_intPPcS4_E
_ZN6gnutls22srp_client_credentialsC1Ev
_ZN6gnutls22srp_client_credentialsC2Ev
_ZN6gnutls22srp_client_credentialsD0Ev
_ZN6gnutls22srp_client_credentialsD1Ev
_ZN6gnutls22srp_client_credentialsD2Ev
_ZN6gnutls22srp_server_credentials20set_credentials_fileEPKcS2_
_ZN6gnutls22srp_server_credentials24set_credentials_functionEPFiP18gnutls_session_intPKcP14gnutls_datum_tS6_S6_S6_E
_ZN6gnutls22srp_server_credentialsC1Ev
_ZN6gnutls22srp_server_credentialsC2Ev
_ZN6gnutls22srp_server_credentialsD0Ev
_ZN6gnutls22srp_server_credentialsD1Ev
_ZN6gnutls22srp_server_credentialsD2Ev
_ZN6gnutls23anon_client_credentialsC1Ev
_ZN6gnutls23anon_client_credentialsC2Ev
_ZN6gnutls23anon_client_credentialsD0Ev
_ZN6gnutls23anon_client_credentialsD1Ev
_ZN6gnutls23anon_client_credentialsD2Ev
_ZN6gnutls23anon_server_credentials13set_dh_paramsERKNS_9dh_paramsE
_ZN6gnutls23anon_server_credentials19set_params_functionEPFiP18gnutls_session_int20gnutls_params_type_tP16gnutls_params_stE
_ZN6gnutls23anon_server_credentialsC1Ev
_ZN6gnutls23anon_server_credentialsC2Ev
_ZN6gnutls23anon_server_credentialsD0Ev
_ZN6gnutls23anon_server_credentialsD1Ev
_ZN6gnutls23anon_server_credentialsD2Ev
_ZN6gnutls23certificate_credentials12set_x509_crlEPP19gnutls_x509_crl_inti
_ZN6gnutls23certificate_credentials12set_x509_crlERK14gnutls_datum_t21gnutls_x509_crt_fmt_t
_ZN6gnutls23certificate_credentials12set_x509_keyEPP19gnutls_x509_crt_intiP23gnutls_x509_privkey_int
_ZN6gnutls23certificate_credentials12set_x509_keyERK14gnutls_datum_tS3_21gnutls_x509_crt_fmt_t
_ZN6gnutls23certificate_credentials13free_ca_namesEv
_ZN6gnutls23certificate_credentials13set_dh_paramsERKNS_9dh_paramsE
_ZN6gnutls23certificate_credentials14set_x509_trustEPP19gnutls_x509_crt_inti
_ZN6gnutls23certificate_credentials14set_x509_trustERK14gnutls_datum_t21gnutls_x509_crt_fmt_t
_ZN6gnutls23certificate_credentials16set_verify_flagsEj
_ZN6gnutls23certificate_credentials17set_verify_limitsEjj
_ZN6gnutls23certificate_credentials17set_x509_crl_fileEPKc21gnutls_x509_crt_fmt_t
_ZN6gnutls23certificate_credentials17set_x509_key_fileEPKcS2_21gnutls_x509_crt_fmt_t
_ZN6gnutls23certificate_credentials19set_x509_trust_fileEPKc21gnutls_x509_crt_fmt_t
_ZN6gnutls23certificate_credentials21set_retrieve_functionEPFiP18gnutls_session_intPK14gnutls_datum_tiPK21gnutls_pk_algorithm_tiP15gnutls_retr2_stE
_ZN6gnutls23certificate_credentials22set_simple_pkcs12_fileEPKc21gnutls_x509_crt_fmt_tS2_
_ZN6gnutls23certificate_credentials8free_casEv
_ZN6gnutls23certificate_credentials9free_crlsEv
_ZN6gnutls23certificate_credentials9free_keysEv
_ZN6gnutls23certificate_credentialsC1Ev
_ZN6gnutls23certificate_credentialsC2Ev
_ZN6gnutls23certificate_credentialsD0Ev
_ZN6gnutls23certificate_credentialsD1Ev
_ZN6gnutls23certificate_credentialsD2Ev
_ZN6gnutls30certificate_server_credentials19set_params_functionEPFiP18gnutls_session_int20gnutls_params_type_tP16gnutls_params_stE
_ZN6gnutls7session10send_alertE20gnutls_alert_level_t26gnutls_alert_description_t
_ZN6gnutls7session12set_max_sizeEy
_ZN6gnutls7session12set_priorityEP18gnutls_priority_st
_ZN6gnutls7session12set_priorityEPKcPS2_
_ZN6gnutls7session12set_user_ptrEPv
_ZN6gnutls7session15set_credentialsERNS_11credentialsE
_ZN6gnutls7session17clear_credentialsEv
_ZN6gnutls7session17send_openpgp_certE27gnutls_openpgp_crt_status_t
_ZN6gnutls7session17set_dh_prime_bitsEj
_ZN6gnutls7session17set_transport_ptrEPv
_ZN6gnutls7session17set_transport_ptrEPvS1_
_ZN6gnutls7session19set_transport_lowatEy
_ZN6gnutls7session22send_appropriate_alertEi
_ZN6gnutls7session22set_private_extensionsEb
_ZN6gnutls7session27set_transport_pull_functionEPFxPvS1_yE
_ZN6gnutls7session27set_transport_push_functionEPFxPvPKvyE
_ZN6gnutls7session31set_max_handshake_packet_lengthEy
_ZN6gnutls7session31set_transport_vec_push_functionEPFxPvPK8giovec_tiE
_ZN6gnutls7session3byeE22gnutls_close_request_t
_ZN6gnutls7session3prfEyPKciyS2_yPc
_ZN6gnutls7session4recvEPvy
_ZN6gnutls7session4sendEPKvy
_ZN6gnutls7session7prf_rawEyPKcyS2_yPc
_ZN6gnutls7session8set_dataEPKvy
_ZN6gnutls7session9handshakeEv
_ZN6gnutls7sessionC1Ej
_ZN6gnutls7sessionC2Ej
_ZN6gnutls7sessionD0Ev
_ZN6gnutls7sessionD1Ev
_ZN6gnutls7sessionD2Ev
_ZN6gnutls9dh_params10export_rawER14gnutls_datum_tS2_
_ZN6gnutls9dh_params10import_rawERK14gnutls_datum_tS3_
_ZN6gnutls9dh_params12export_pkcs3E21gnutls_x509_crt_fmt_tPhPy
_ZN6gnutls9dh_params12import_pkcs3ERK14gnutls_datum_t21gnutls_x509_crt_fmt_t
_ZN6gnutls9dh_params8generateEj
_ZN6gnutls9dh_paramsC1Ev
_ZN6gnutls9dh_paramsC2Ev
_ZN6gnutls9dh_paramsD1Ev
_ZN6gnutls9dh_paramsD2Ev
_ZN6gnutls9dh_paramsaSERKS0_
_ZN6gnutls9exception8get_codeEv
_ZN6gnutls9exceptionC1Ei
_ZN6gnutls9exceptionC2Ei
_ZN6gnutls9exceptionD0Ev
_ZN6gnutls9exceptionD1Ev
_ZNK6gnutls11credentials3ptrEv
_ZNK6gnutls11credentials8get_typeEv
_ZNK6gnutls14server_session14db_check_entryER14gnutls_datum_t
_ZNK6gnutls14server_session15get_server_nameEPvPyPjj
_ZNK6gnutls14server_session16get_psk_usernameEv
_ZNK6gnutls14server_session16get_srp_usernameEv
_ZNK6gnutls14server_session9db_removeEv
_ZNK6gnutls7session10get_cipherEv
_ZNK6gnutls7session10is_resumedEv
_ZNK6gnutls7session12get_dh_groupER14gnutls_datum_tS2_
_ZNK6gnutls7session12get_max_sizeEv
_ZNK6gnutls7session12get_user_ptrEv
_ZNK6gnutls7session13check_pendingEv
_ZNK6gnutls7session13get_auth_typeEv
_ZNK6gnutls7session13get_dh_pubkeyER14gnutls_datum_t
_ZNK6gnutls7session15get_compressionEv
_ZNK6gnutls7session17get_dh_prime_bitsEv
_ZNK6gnutls7session17get_transport_ptrERPvS2_
_ZNK6gnutls7session17get_transport_ptrEv
_ZNK6gnutls7session18get_dh_secret_bitsEv
_ZNK6gnutls7session19get_our_certificateER14gnutls_datum_t
_ZNK6gnutls7session20get_certificate_typeEv
_ZNK6gnutls7session20get_client_auth_typeEv
_ZNK6gnutls7session20get_protocol_versionEv
_ZNK6gnutls7session20get_record_directionEv
_ZNK6gnutls7session20get_server_auth_typeEv
_ZNK6gnutls7session21get_handshake_last_inEv
_ZNK6gnutls7session21get_peers_certificateEPPK14gnutls_datum_tPj
_ZNK6gnutls7session21get_peers_certificateERSt6vectorI14gnutls_datum_tSaIS2_EE
_ZNK6gnutls7session22get_handshake_last_outEv
_ZNK6gnutls7session24get_dh_peers_public_bitsEv
_ZNK6gnutls7session24verify_peers_certificateERj
_ZNK6gnutls7session37get_peers_certificate_activation_timeEv
_ZNK6gnutls7session37get_peers_certificate_expiration_timeEv
_ZNK6gnutls7session6get_idEPvPy
_ZNK6gnutls7session6get_kxEv
_ZNK6gnutls7session7get_macEv
_ZNK6gnutls7session8get_dataEP18gnutls_session_intR14gnutls_datum_t
_ZNK6gnutls7session8get_dataEPvPy
_ZNK6gnutls7session9get_alertEv
_ZNK6gnutls9dh_params12get_params_tEv
_ZNK6gnutls9exception4whatEv
_ZNSt6vectorI14gnutls_datum_tSaIS0_EE13_M_insert_auxEN9__gnu_cxx17__normal_iteratorIPS0_S2_EERKS0_
_ZTIN6gnutls11credentialsE DATA
_ZTIN6gnutls11noncopyableE DATA
_ZTIN6gnutls14client_sessionE DATA
_ZTIN6gnutls14server_sessionE DATA
_ZTIN6gnutls22psk_client_credentialsE DATA
_ZTIN6gnutls22psk_server_credentialsE DATA
_ZTIN6gnutls22srp_client_credentialsE DATA
_ZTIN6gnutls22srp_server_credentialsE DATA
_ZTIN6gnutls23anon_client_credentialsE DATA
_ZTIN6gnutls23anon_server_credentialsE DATA
_ZTIN6gnutls23certificate_credentialsE DATA
_ZTIN6gnutls7sessionE DATA
_ZTIN6gnutls9exceptionE DATA
_ZTISt9exception DATA
_ZTSN6gnutls11credentialsE DATA
_ZTSN6gnutls11noncopyableE DATA
_ZTSN6gnutls14client_sessionE DATA
_ZTSN6gnutls14server_sessionE DATA
_ZTSN6gnutls22psk_client_credentialsE DATA
_ZTSN6gnutls22psk_server_credentialsE DATA
_ZTSN6gnutls22srp_client_credentialsE DATA
_ZTSN6gnutls22srp_server_credentialsE DATA
_ZTSN6gnutls23anon_client_credentialsE DATA
_ZTSN6gnutls23anon_server_credentialsE DATA
_ZTSN6gnutls23certificate_credentialsE DATA
_ZTSN6gnutls7sessionE DATA
_ZTSN6gnutls9exceptionE DATA
_ZTSSt9exception DATA
_ZTVN6gnutls11credentialsE DATA
_ZTVN6gnutls14client_sessionE DATA
_ZTVN6gnutls14server_sessionE DATA
_ZTVN6gnutls22psk_client_credentialsE DATA
_ZTVN6gnutls22psk_server_credentialsE DATA
_ZTVN6gnutls22srp_client_credentialsE DATA
_ZTVN6gnutls22srp_server_credentialsE DATA
_ZTVN6gnutls23anon_client_credentialsE DATA
_ZTVN6gnutls23anon_server_credentialsE DATA
_ZTVN6gnutls23certificate_credentialsE DATA
_ZTVN6gnutls7sessionE DATA
_ZTVN6gnutls9exceptionE DATA
