;
; Definition file of libsrt.dll
; Automatic generated by gendef
; written by Kai Tietz 2008
;
LIBRARY "libsrt.dll"
EXPORTS
HaiCryptCipher_Get_Instance
HaiCrypt_Clone
HaiCrypt_Close
HaiCrypt_Create
HaiCrypt_Rx_Data
HaiCrypt_Rx_Process
HaiCrypt_Tx_Data
HaiCrypt_Tx_GetBuf
HaiCrypt_Tx_GetKeyFlags
HaiCrypt_Tx_ManageKeys
HaiCrypt_Tx_Process
SysStrError
_ZN13CUDTException15getErrorMessageEv
_ZN13CUDTException5clearEv
_ZN13CUDTExceptionC1E9CodeMajor9CodeMinori
_ZN13CUDTExceptionC1ERKS_
_ZN13CUDTExceptionC2E9CodeMajor9CodeMinori
_ZN13CUDTExceptionC2ERKS_
_ZN13CUDTExceptionD1Ev
_ZN13CUDTExceptionD2Ev
_ZN3UDT10epoll_waitEiPSt3setIiSt4lessIiESaIiEES5_xS5_S5_
_ZN3UDT10getsockoptEii11SRT_SOCKOPTPvPi
_ZN3UDT10resetlogfaEPKiy
_ZN3UDT10resetlogfaESt3setIN7logging5LogFAESt4lessIS2_ESaIS2_EE
_ZN3UDT10setsockoptEii11SRT_SOCKOPTPKvi
_ZN3UDT11epoll_wait2EiPiS0_S0_S0_xS0_S0_S0_S0_
_ZN3UDT11getpeernameEiP8sockaddrPi
_ZN3UDT11getsocknameEiP8sockaddrPi
_ZN3UDT11getstreamidEi
_ZN3UDT11setlogflagsEi
_ZN3UDT11setloglevelEN7logging8LogLevel4typeE
_ZN3UDT11setstreamidEiRKSs
_ZN3UDT12INVALID_SOCKE DATA
_ZN3UDT12epoll_createEv
_ZN3UDT12getlasterrorEv
_ZN3UDT12getsockstateEi
_ZN3UDT12setlogstreamERSo
_ZN3UDT13epoll_releaseEi
_ZN3UDT13setloghandlerEPvPFvS0_iPKciS2_S2_E
_ZN3UDT15epoll_add_ssockEiiPKi
_ZN3UDT15epoll_add_usockEiiPKi
_ZN3UDT17getlasterror_codeEv
_ZN3UDT17getlasterror_descEv
_ZN3UDT18epoll_remove_ssockEii
_ZN3UDT18epoll_remove_usockEii
_ZN3UDT18epoll_update_ssockEiiPKi
_ZN3UDT18epoll_update_usockEiiPKi
_ZN3UDT4bindEiPK8sockaddri
_ZN3UDT4recvEiPcii
_ZN3UDT4sendEiPKcii
_ZN3UDT5ERRORE DATA
_ZN3UDT5bind2Eii
_ZN3UDT5closeEi
_ZN3UDT6acceptEiP8sockaddrPi
_ZN3UDT6bstatsEiP12CBytePerfMonb
_ZN3UDT6listenEii
_ZN3UDT6selectEiPSt3setIiSt4lessIiESaIiEES5_S5_PK7timeval
_ZN3UDT6socketEiii
_ZN3UDT7cleanupEv
_ZN3UDT7connectEiPK8sockaddri
_ZN3UDT7perfmonEiP8CPerfMonb
_ZN3UDT7recvmsgEiPci
_ZN3UDT7recvmsgEiPciRy
_ZN3UDT7sendmsgEiPKciiby
_ZN3UDT7startupEv
_ZN3UDT8addlogfaEN7logging5LogFAE
_ZN3UDT8dellogfaEN7logging5LogFAE
_ZN3UDT8recvfileEiRSt13basic_fstreamIcSt11char_traitsIcEERxxi
_ZN3UDT8selectExERKSt6vectorIiSaIiEEPS2_S5_S5_x
_ZN3UDT8sendfileEiRSt13basic_fstreamIcSt11char_traitsIcEERxxi
_ZN3UDT9recvfile2EiPKcPxxi
_ZN3UDT9sendfile2EiPKcPxxi
_ZN7logging10FormatTimeEy
_ZN7logging13LogDispatcher11SendLogLineEPKciRKSsS4_
_ZN7logging13LogDispatcher12CheckEnabledEv
_ZN7logging13LogDispatcher19CreateLogLinePrefixERSt19basic_ostringstreamIcSt11char_traitsIcESaIcEE
_ZN7logging13LogDispatcher5issetEi
_ZN7logging13LogDispatcher8printlocEPKciRKSsS4_
_ZN7logging13LogDispatcherC1EiNS_8LogLevel4typeERKSsRNS_9LogConfigE
_ZN7logging13LogDispatcherC2EiNS_8LogLevel4typeERKSsRNS_9LogConfigE
_ZN7logging13LogDispatcherD1Ev
_ZN7logging13LogDispatcherD2Ev
_ZN7logging13LogDispatcherclEv
_ZNK13CUDTException12getErrorCodeEv
_ZNK13CUDTException8getErrnoEv
srt_accept
srt_addlogfa
srt_bind
srt_bind_peerof
srt_bistats
srt_bstats
srt_cleanup
srt_clearlasterror
srt_close
srt_connect
srt_connect_debug
srt_create_socket
srt_dellogfa
srt_epoll_add_ssock
srt_epoll_add_usock
srt_epoll_create
srt_epoll_release
srt_epoll_remove_ssock
srt_epoll_remove_usock
srt_epoll_update_ssock
srt_epoll_update_usock
srt_epoll_wait
srt_getlasterror
srt_getlasterror_str
srt_getpeername
srt_getsndbuffer
srt_getsockflag
srt_getsockname
srt_getsockopt
srt_getsockstate
srt_listen
srt_logger_config DATA
srt_msgctrl_default DATA
srt_msgctrl_init
srt_perfmon
srt_recv
srt_recvfile
srt_recvmsg
srt_recvmsg2
srt_rendezvous
srt_resetlogfa
srt_send
srt_sendfile
srt_sendmsg
srt_sendmsg2
srt_setlogflags
srt_setloghandler
srt_setloglevel
srt_setsockflag
srt_setsockopt
srt_socket
srt_startup
srt_strerror
